target datalayout = "e-m:e-p270:32:32-p271:32:32-p272:64:64-i64:64-i128:128-f80:128-n8:16:32:64-S128"
target triple = "x86_64-pc-linux-gnu"

%"class.std::__1::unique_ptr" = type { ptr }
%"class.std::__1::__barrier_algorithm_base" = type { ptr, %"class.std::__1::unique_ptr" }
%"struct.std::__1::__barrier_algorithm_base::__state_t" = type { [64 x %struct.anon] }
%struct.anon = type { %"struct.std::__1::atomic" }
%"struct.std::__1::atomic" = type { %"struct.std::__1::__atomic_base" }
%"struct.std::__1::__atomic_base" = type { %"struct.std::__1::__atomic_base.0" }
%"struct.std::__1::__atomic_base.0" = type { %"struct.std::__1::__cxx_atomic_impl" }
%"struct.std::__1::__cxx_atomic_impl" = type { %"struct.std::__1::__cxx_atomic_base_impl" }
%"struct.std::__1::__cxx_atomic_base_impl" = type { i8 }

; Function Attrs: mustprogress nounwind uwtable
define linkonce_odr hidden void @_ZNSt3__122__cxx_atomic_base_implIhEC2B8ne210000Eh(ptr noundef nonnull align 1 dereferenceable(1) %0, i8 noundef zeroext %1) unnamed_addr #3 comdat align 2 {
  %3 = alloca ptr, align 8
  %4 = alloca i8, align 1
  store ptr %0, ptr %3, align 8, !tbaa !36
  store i8 %1, ptr %4, align 1, !tbaa !13
  %5 = load ptr, ptr %3, align 8
  %6 = getelementptr inbounds nuw %"struct.std::__1::__cxx_atomic_base_impl", ptr %5, i32 0, i32 0
  %7 = load i8, ptr %4, align 1, !tbaa !13
  store i8 %7, ptr %6, align 1, !tbaa !38
  ret void
}

; Function Attrs: mustprogress nounwind uwtable
define linkonce_odr hidden void @_ZNSt3__117__cxx_atomic_implIhNS_22__cxx_atomic_base_implIhEEEC2B8ne210000Eh(ptr noundef nonnull align 1 dereferenceable(1) %0, i8 noundef zeroext %1) unnamed_addr #3 comdat align 2 {
  %3 = alloca ptr, align 8
  %4 = alloca i8, align 1
  store ptr %0, ptr %3, align 8, !tbaa !34
  store i8 %1, ptr %4, align 1, !tbaa !13
  %5 = load ptr, ptr %3, align 8
  %6 = load i8, ptr %4, align 1, !tbaa !13
  call void @_ZNSt3__122__cxx_atomic_base_implIhEC2B8ne210000Eh(ptr noundef nonnull align 1 dereferenceable(1) %5, i8 noundef zeroext %6) #12
  ret void
}

; Function Attrs: mustprogress nounwind uwtable
define linkonce_odr hidden void @_ZNSt3__113__atomic_baseIhLb0EEC2B8ne210000Eh(ptr noundef nonnull align 1 dereferenceable(1) %0, i8 noundef zeroext %1) unnamed_addr #3 comdat align 2 {
  %3 = alloca ptr, align 8
  %4 = alloca i8, align 1
  store ptr %0, ptr %3, align 8, !tbaa !32
  store i8 %1, ptr %4, align 1, !tbaa !13
  %5 = load ptr, ptr %3, align 8
  %6 = getelementptr inbounds nuw %"struct.std::__1::__atomic_base.0", ptr %5, i32 0, i32 0
  %7 = load i8, ptr %4, align 1, !tbaa !13
  call void @_ZNSt3__117__cxx_atomic_implIhNS_22__cxx_atomic_base_implIhEEEC2B8ne210000Eh(ptr noundef nonnull align 1 dereferenceable(1) %6, i8 noundef zeroext %7) #12
  ret void
}

; Function Attrs: mustprogress nounwind uwtable
define linkonce_odr hidden void @_ZNSt3__113__atomic_baseIhLb1EEC2B8ne210000Eh(ptr noundef nonnull align 1 dereferenceable(1) %0, i8 noundef zeroext %1) unnamed_addr #3 comdat align 2 {
  %3 = alloca ptr, align 8
  %4 = alloca i8, align 1
  store ptr %0, ptr %3, align 8, !tbaa !30
  store i8 %1, ptr %4, align 1, !tbaa !13
  %5 = load ptr, ptr %3, align 8
  %6 = load i8, ptr %4, align 1, !tbaa !13
  call void @_ZNSt3__113__atomic_baseIhLb0EEC2B8ne210000Eh(ptr noundef nonnull align 1 dereferenceable(1) %5, i8 noundef zeroext %6) #12
  ret void
}

; Function Attrs: mustprogress nounwind uwtable
define linkonce_odr hidden void @_ZNKSt3__114default_deleteIA_NS_24__barrier_algorithm_base9__state_tEEclB8ne210000IS2_TnNS_9enable_ifIXsr14is_convertibleIPA_T_PS3_EE5valueEiE4typeELi0EEEvPS7_(ptr noundef nonnull align 1 dereferenceable(1) %0, ptr noundef %1) #3 comdat align 2 {
  %3 = alloca ptr, align 8
  %4 = alloca ptr, align 8
  store ptr %0, ptr %3, align 8, !tbaa !40
  store ptr %1, ptr %4, align 8, !tbaa !26
  %5 = load ptr, ptr %4, align 8, !tbaa !26
  %6 = icmp eq ptr %5, null
  br i1 %6, label %8, label %7

7:                                                ; preds = %2
  call void @_ZdaPvSt11align_val_t(ptr noundef %5, i64 noundef 64) #11
  br label %8

8:                                                ; preds = %7, %2
  ret void
}

; Function Attrs: mustprogress nounwind uwtable
define linkonce_odr hidden void @_ZNSt3__16atomicIhEC2B8ne210000Eh(ptr noundef nonnull align 1 dereferenceable(1) %0, i8 noundef zeroext %1) unnamed_addr #3 comdat align 2 {
  %3 = alloca ptr, align 8
  %4 = alloca i8, align 1
  store ptr %0, ptr %3, align 8, !tbaa !28
  store i8 %1, ptr %4, align 1, !tbaa !13
  %5 = load ptr, ptr %3, align 8
  %6 = load i8, ptr %4, align 1, !tbaa !13
  call void @_ZNSt3__113__atomic_baseIhLb1EEC2B8ne210000Eh(ptr noundef nonnull align 1 dereferenceable(1) %5, i8 noundef zeroext %6) #12
  ret void
}

; Function Attrs: mustprogress nounwind uwtable
define linkonce_odr hidden void @_ZNSt3__110unique_ptrIA_NS_24__barrier_algorithm_base9__state_tENS_14default_deleteIS3_EEE5resetB8ne210000EDn(ptr noundef nonnull align 8 dereferenceable(8) %0, ptr %1) #3 comdat align 2 {
  %3 = alloca ptr, align 8
  %4 = alloca ptr, align 8
  %5 = alloca ptr, align 8
  store ptr %0, ptr %3, align 8, !tbaa !23
  store ptr %1, ptr %4, align 8, !tbaa !42
  %6 = load ptr, ptr %3, align 8
  call void @llvm.lifetime.start.p0(i64 8, ptr %5) #12
  %7 = getelementptr inbounds nuw %"class.std::__1::unique_ptr", ptr %6, i32 0, i32 0
  %8 = load ptr, ptr %7, align 8, !tbaa !25
  store ptr %8, ptr %5, align 8, !tbaa !26
  %9 = getelementptr inbounds nuw %"class.std::__1::unique_ptr", ptr %6, i32 0, i32 0
  store ptr null, ptr %9, align 8, !tbaa !25
  %10 = load ptr, ptr %5, align 8, !tbaa !26
  %11 = icmp ne ptr %10, null
  br i1 %11, label %12, label %14

12:                                               ; preds = %2
  %13 = load ptr, ptr %5, align 8, !tbaa !26
  call void @_ZNKSt3__114default_deleteIA_NS_24__barrier_algorithm_base9__state_tEEclB8ne210000IS2_TnNS_9enable_ifIXsr14is_convertibleIPA_T_PS3_EE5valueEiE4typeELi0EEEvPS7_(ptr noundef nonnull align 1 dereferenceable(1) %6, ptr noundef %13) #12
  br label %14

14:                                               ; preds = %12, %2
  call void @llvm.lifetime.end.p0(i64 8, ptr %5) #12
  ret void
}

; Function Attrs: mustprogress nounwind uwtable
define linkonce_odr hidden noundef nonnull align 1 dereferenceable(1) ptr @_ZNSt3__110unique_ptrIA_NS_24__barrier_algorithm_base9__state_tENS_14default_deleteIS3_EEE11get_deleterB8ne210000Ev(ptr noundef nonnull align 8 dereferenceable(8) %0) #3 comdat align 2 {
  %2 = alloca ptr, align 8
  store ptr %0, ptr %2, align 8, !tbaa !23
  %3 = load ptr, ptr %2, align 8
  ret ptr %3
}

; Function Attrs: mustprogress nounwind uwtable
define linkonce_odr hidden void @_ZNSt3__110unique_ptrIA_NS_24__barrier_algorithm_base9__state_tENS_14default_deleteIS3_EEE5resetB8ne210000IPS2_TnNS_9enable_ifIXsr28_CheckArrayPointerConversionIT_EE5valueEiE4typeELi0EEEvSA_(ptr noundef nonnull align 8 dereferenceable(8) %0, ptr noundef %1) #3 comdat align 2 {
  %3 = alloca ptr, align 8
  %4 = alloca ptr, align 8
  %5 = alloca ptr, align 8
  store ptr %0, ptr %3, align 8, !tbaa !23
  store ptr %1, ptr %4, align 8, !tbaa !26
  %6 = load ptr, ptr %3, align 8
  call void @llvm.lifetime.start.p0(i64 8, ptr %5) #12
  %7 = getelementptr inbounds nuw %"class.std::__1::unique_ptr", ptr %6, i32 0, i32 0
  %8 = load ptr, ptr %7, align 8, !tbaa !25
  store ptr %8, ptr %5, align 8, !tbaa !26
  %9 = load ptr, ptr %4, align 8, !tbaa !26
  %10 = getelementptr inbounds nuw %"class.std::__1::unique_ptr", ptr %6, i32 0, i32 0
  store ptr %9, ptr %10, align 8, !tbaa !25
  %11 = load ptr, ptr %5, align 8, !tbaa !26
  %12 = icmp ne ptr %11, null
  br i1 %12, label %13, label %15

13:                                               ; preds = %2
  %14 = load ptr, ptr %5, align 8, !tbaa !26
  call void @_ZNKSt3__114default_deleteIA_NS_24__barrier_algorithm_base9__state_tEEclB8ne210000IS2_TnNS_9enable_ifIXsr14is_convertibleIPA_T_PS3_EE5valueEiE4typeELi0EEEvPS7_(ptr noundef nonnull align 1 dereferenceable(1) %6, ptr noundef %14) #12
  br label %15

15:                                               ; preds = %13, %2
  call void @llvm.lifetime.end.p0(i64 8, ptr %5) #12
  ret void
}

; Function Attrs: mustprogress nounwind uwtable
define linkonce_odr hidden noundef ptr @_ZNSt3__110unique_ptrIA_NS_24__barrier_algorithm_base9__state_tENS_14default_deleteIS3_EEE7releaseB8ne210000Ev(ptr noundef nonnull align 8 dereferenceable(8) %0) #3 comdat align 2 {
  %2 = alloca ptr, align 8
  %3 = alloca ptr, align 8
  store ptr %0, ptr %2, align 8, !tbaa !23
  %4 = load ptr, ptr %2, align 8
  call void @llvm.lifetime.start.p0(i64 8, ptr %3) #12
  %5 = getelementptr inbounds nuw %"class.std::__1::unique_ptr", ptr %4, i32 0, i32 0
  %6 = load ptr, ptr %5, align 8, !tbaa !25
  store ptr %6, ptr %3, align 8, !tbaa !26
  %7 = getelementptr inbounds nuw %"class.std::__1::unique_ptr", ptr %4, i32 0, i32 0
  store ptr null, ptr %7, align 8, !tbaa !25
  %8 = load ptr, ptr %3, align 8, !tbaa !26
  call void @llvm.lifetime.end.p0(i64 8, ptr %3) #12
  ret ptr %8
}

; Function Attrs: inlinehint mustprogress nounwind uwtable
define linkonce_odr hidden void @_ZNSt3__124__barrier_algorithm_base9__state_tUt_C2Ev(ptr noundef nonnull align 1 dereferenceable(1) %0) unnamed_addr #5 comdat align 2 {
  %2 = alloca ptr, align 8
  store ptr %0, ptr %2, align 8, !tbaa !27
  %3 = load ptr, ptr %2, align 8
  %4 = getelementptr inbounds nuw %struct.anon, ptr %3, i32 0, i32 0
  call void @_ZNSt3__16atomicIhEC2B8ne210000Eh(ptr noundef nonnull align 1 dereferenceable(1) %4, i8 noundef zeroext 0) #12
  ret void
}

; Function Attrs: mustprogress nounwind uwtable
define linkonce_odr hidden void @_ZNSt3__110unique_ptrIA_NS_24__barrier_algorithm_base9__state_tENS_14default_deleteIS3_EEED2B8ne210000Ev(ptr noundef nonnull align 8 dereferenceable(8) %0) unnamed_addr #3 comdat align 2 {
  %2 = alloca ptr, align 8
  store ptr %0, ptr %2, align 8, !tbaa !23
  %3 = load ptr, ptr %2, align 8
  call void @_ZNSt3__110unique_ptrIA_NS_24__barrier_algorithm_base9__state_tENS_14default_deleteIS3_EEE5resetB8ne210000EDn(ptr noundef nonnull align 8 dereferenceable(8) %3, ptr null) #12
  ret void
}

; Function Attrs: mustprogress nounwind uwtable
define linkonce_odr hidden noundef nonnull align 8 dereferenceable(8) ptr @_ZNSt3__110unique_ptrIA_NS_24__barrier_algorithm_base9__state_tENS_14default_deleteIS3_EEEaSB8ne210000EOS6_(ptr noundef nonnull align 8 dereferenceable(8) %0, ptr noundef nonnull align 8 dereferenceable(8) %1) #3 comdat align 2 {
  %3 = alloca ptr, align 8
  %4 = alloca ptr, align 8
  store ptr %0, ptr %3, align 8, !tbaa !23
  store ptr %1, ptr %4, align 8, !tbaa !23
  %5 = load ptr, ptr %3, align 8
  %6 = load ptr, ptr %4, align 8, !tbaa !23
  %7 = call noundef ptr @_ZNSt3__110unique_ptrIA_NS_24__barrier_algorithm_base9__state_tENS_14default_deleteIS3_EEE7releaseB8ne210000Ev(ptr noundef nonnull align 8 dereferenceable(8) %6) #12
  call void @_ZNSt3__110unique_ptrIA_NS_24__barrier_algorithm_base9__state_tENS_14default_deleteIS3_EEE5resetB8ne210000IPS2_TnNS_9enable_ifIXsr28_CheckArrayPointerConversionIT_EE5valueEiE4typeELi0EEEvSA_(ptr noundef nonnull align 8 dereferenceable(8) %5, ptr noundef %7) #12
  %8 = load ptr, ptr %4, align 8, !tbaa !23
  %9 = call noundef nonnull align 1 dereferenceable(1) ptr @_ZNSt3__110unique_ptrIA_NS_24__barrier_algorithm_base9__state_tENS_14default_deleteIS3_EEE11get_deleterB8ne210000Ev(ptr noundef nonnull align 8 dereferenceable(8) %8) #12
  ret ptr %5
}

; Function Attrs: mustprogress nounwind uwtable
define linkonce_odr hidden void @_ZNSt3__110unique_ptrIA_NS_24__barrier_algorithm_base9__state_tENS_14default_deleteIS3_EEEC2B8ne210000IPS2_Lb1EvvEET_(ptr noundef nonnull align 8 dereferenceable(8) %0, ptr noundef %1) unnamed_addr #3 comdat align 2 {
  %3 = alloca ptr, align 8
  %4 = alloca ptr, align 8
  store ptr %0, ptr %3, align 8, !tbaa !23
  store ptr %1, ptr %4, align 8, !tbaa !26
  %5 = load ptr, ptr %3, align 8
  %6 = getelementptr inbounds nuw %"class.std::__1::unique_ptr", ptr %5, i32 0, i32 0
  %7 = load ptr, ptr %4, align 8, !tbaa !26
  store ptr %7, ptr %6, align 8, !tbaa !25
  ret void
}

; Function Attrs: inlinehint mustprogress nounwind uwtable
define linkonce_odr hidden void @_ZNSt3__124__barrier_algorithm_base9__state_tC2Ev(ptr noundef nonnull align 64 dereferenceable(64) %0) unnamed_addr #5 comdat align 2 {
  %2 = alloca ptr, align 8
  store ptr %0, ptr %2, align 8, !tbaa !26
  %3 = load ptr, ptr %2, align 8
  %4 = getelementptr inbounds nuw %"struct.std::__1::__barrier_algorithm_base::__state_t", ptr %3, i32 0, i32 0
  %5 = getelementptr inbounds [64 x %struct.anon], ptr %4, i32 0, i32 0
  %6 = getelementptr inbounds %struct.anon, ptr %5, i64 64
  br label %7

7:                                                ; preds = %7, %1
  %8 = phi ptr [ %5, %1 ], [ %9, %7 ]
  call void @_ZNSt3__124__barrier_algorithm_base9__state_tUt_C2Ev(ptr noundef nonnull align 1 dereferenceable(1) %8) #12
  %9 = getelementptr inbounds %struct.anon, ptr %8, i64 1
  %10 = icmp eq ptr %9, %6
  br i1 %10, label %11, label %7

11:                                               ; preds = %7
  ret void
}

; Function Attrs: mustprogress nounwind uwtable
define linkonce_odr hidden void @_ZNSt3__110unique_ptrIA_NS_24__barrier_algorithm_base9__state_tENS_14default_deleteIS3_EEEC2B8ne210000ILb1EvEEv(ptr noundef nonnull align 8 dereferenceable(8) %0) unnamed_addr #3 comdat align 2 {
  %2 = alloca ptr, align 8
  store ptr %0, ptr %2, align 8, !tbaa !23
  %3 = load ptr, ptr %2, align 8
  %4 = getelementptr inbounds nuw %"class.std::__1::unique_ptr", ptr %3, i32 0, i32 0
  store ptr null, ptr %4, align 8, !tbaa !25
  ret void
}

; Function Attrs: mustprogress uwtable
define linkonce_odr hidden void @_ZNSt3__124__barrier_algorithm_baseC2ERl(ptr noundef nonnull align 8 dereferenceable(16) %0, ptr noundef nonnull align 8 dereferenceable(8) %1) unnamed_addr #0 comdat align 2 personality ptr @__gxx_personality_v0 {
  %3 = alloca ptr, align 8
  %4 = alloca ptr, align 8
  %5 = alloca i64, align 8
  %6 = alloca %"class.std::__1::unique_ptr", align 8
  %7 = alloca ptr, align 8
  %8 = alloca i32, align 4
  store ptr %0, ptr %3, align 8, !tbaa !9
  store ptr %1, ptr %4, align 8, !tbaa !4
  %9 = load ptr, ptr %3, align 8
  %10 = getelementptr inbounds nuw %"class.std::__1::__barrier_algorithm_base", ptr %9, i32 0, i32 0
  %11 = load ptr, ptr %4, align 8, !tbaa !4
  store ptr %11, ptr %10, align 8, !tbaa !4
  %12 = getelementptr inbounds nuw %"class.std::__1::__barrier_algorithm_base", ptr %9, i32 0, i32 1
  call void @_ZNSt3__110unique_ptrIA_NS_24__barrier_algorithm_base9__state_tENS_14default_deleteIS3_EEEC2B8ne210000ILb1EvEEv(ptr noundef nonnull align 8 dereferenceable(8) %12) #12
  call void @llvm.lifetime.start.p0(i64 8, ptr %5) #12
  %13 = load ptr, ptr %4, align 8, !tbaa !4
  %14 = load i64, ptr %13, align 8, !tbaa !11
  %15 = add nsw i64 %14, 1
  %16 = ashr i64 %15, 1
  store i64 %16, ptr %5, align 8, !tbaa !11
  call void @llvm.lifetime.start.p0(i64 8, ptr %6) #12
  %17 = load i64, ptr %5, align 8, !tbaa !11
  %18 = call { i64, i1 } @llvm.umul.with.overflow.i64(i64 %17, i64 64)
  %19 = extractvalue { i64, i1 } %18, 1
  %20 = extractvalue { i64, i1 } %18, 0
  %21 = select i1 %19, i64 -1, i64 %20
  %22 = invoke noalias noundef nonnull align 64 ptr @_ZnamSt11align_val_t(i64 noundef %21, i64 noundef 64) #10
          to label %23 unwind label %34

23:                                               ; preds = %2
  %24 = icmp eq i64 %17, 0
  br i1 %24, label %31, label %25

25:                                               ; preds = %23
  %26 = getelementptr inbounds %"struct.std::__1::__barrier_algorithm_base::__state_t", ptr %22, i64 %17
  br label %27

27:                                               ; preds = %27, %25
  %28 = phi ptr [ %22, %25 ], [ %29, %27 ]
  call void @_ZNSt3__124__barrier_algorithm_base9__state_tC2Ev(ptr noundef nonnull align 64 dereferenceable(64) %28) #12
  %29 = getelementptr inbounds %"struct.std::__1::__barrier_algorithm_base::__state_t", ptr %28, i64 1
  %30 = icmp eq ptr %29, %26
  br i1 %30, label %31, label %27

31:                                               ; preds = %23, %27
  call void @_ZNSt3__110unique_ptrIA_NS_24__barrier_algorithm_base9__state_tENS_14default_deleteIS3_EEEC2B8ne210000IPS2_Lb1EvvEET_(ptr noundef nonnull align 8 dereferenceable(8) %6, ptr noundef %22) #12
  %32 = getelementptr inbounds nuw %"class.std::__1::__barrier_algorithm_base", ptr %9, i32 0, i32 1
  %33 = call noundef nonnull align 8 dereferenceable(8) ptr @_ZNSt3__110unique_ptrIA_NS_24__barrier_algorithm_base9__state_tENS_14default_deleteIS3_EEEaSB8ne210000EOS6_(ptr noundef nonnull align 8 dereferenceable(8) %32, ptr noundef nonnull align 8 dereferenceable(8) %6) #12
  call void @_ZNSt3__110unique_ptrIA_NS_24__barrier_algorithm_base9__state_tENS_14default_deleteIS3_EEED2B8ne210000Ev(ptr noundef nonnull align 8 dereferenceable(8) %6) #12
  call void @llvm.lifetime.end.p0(i64 8, ptr %6) #12
  call void @llvm.lifetime.end.p0(i64 8, ptr %5) #12
  ret void

34:                                               ; preds = %2
  %35 = landingpad { ptr, i32 }
          cleanup
  %36 = extractvalue { ptr, i32 } %35, 0
  store ptr %36, ptr %7, align 8
  %37 = extractvalue { ptr, i32 } %35, 1
  store i32 %37, ptr %8, align 4
  call void @llvm.lifetime.end.p0(i64 8, ptr %6) #12
  call void @llvm.lifetime.end.p0(i64 8, ptr %5) #12
  call void @_ZNSt3__110unique_ptrIA_NS_24__barrier_algorithm_base9__state_tENS_14default_deleteIS3_EEED2B8ne210000Ev(ptr noundef nonnull align 8 dereferenceable(8) %12) #12
  br label %38

38:                                               ; preds = %34
  %39 = load ptr, ptr %7, align 8
  %40 = load i32, ptr %8, align 4
  %41 = insertvalue { ptr, i32 } poison, ptr %39, 0
  %42 = insertvalue { ptr, i32 } %41, i32 %40, 1
  resume { ptr, i32 } %42
}

; Function Attrs: mustprogress uwtable
define dso_local noundef ptr @_ZNSt3__134__construct_barrier_algorithm_baseERl(ptr noundef nonnull align 8 dereferenceable(8) %0) #0 personality ptr @__gxx_personality_v0 {
  %2 = alloca ptr, align 8
  %3 = alloca ptr, align 8
  %4 = alloca i32, align 4
  store ptr %0, ptr %2, align 8, !tbaa !4
  %5 = call noalias noundef nonnull ptr @_Znwm(i64 noundef 16) #10
  %6 = load ptr, ptr %2, align 8, !tbaa !4
  invoke void @_ZNSt3__124__barrier_algorithm_baseC2ERl(ptr noundef nonnull align 8 dereferenceable(16) %5, ptr noundef nonnull align 8 dereferenceable(8) %6)
          to label %7 unwind label %8

7:                                                ; preds = %1
  ret ptr %5

8:                                                ; preds = %1
  %9 = landingpad { ptr, i32 }
          cleanup
  %10 = extractvalue { ptr, i32 } %9, 0
  store ptr %10, ptr %3, align 8
  %11 = extractvalue { ptr, i32 } %9, 1
  store i32 %11, ptr %4, align 4
  call void @_ZdlPvm(ptr noundef %5, i64 noundef 16) #11
  br label %12

12:                                               ; preds = %8
  %13 = load ptr, ptr %3, align 8
  %14 = load i32, ptr %4, align 4
  %15 = insertvalue { ptr, i32 } poison, ptr %13, 0
  %16 = insertvalue { ptr, i32 } %15, i32 %14, 1
  resume { ptr, i32 } %16
}