; Function Attrs: mustprogress uwtable
define dso_local noundef nonnull ptr @_ZNSt3__134__construct_barrier_algorithm_baseERl(ptr noundef nonnull align 8 dereferenceable(8) %0) local_unnamed_addr #0 personality ptr @__gxx_personality_v0 {
  %2 = tail call noalias noundef nonnull dereferenceable(16) ptr @_Znwm(i64 noundef 16) #8
  store ptr %0, ptr %2, align 8, !tbaa !4
  %3 = getelementptr inbounds nuw i8, ptr %2, i64 8
  store ptr null, ptr %3, align 8, !tbaa !9
  %4 = load i64, ptr %0, align 8, !tbaa !12
  %5 = add nsw i64 %4, 1
  %6 = ashr i64 %5, 1
  %7 = icmp ugt i64 %6, 288230376151711743
  %8 = shl i64 %6, 6
  %9 = select i1 %7, i64 -1, i64 %8
  %10 = invoke noalias noundef nonnull align 64 ptr @_ZnamSt11align_val_t(i64 noundef %9, i64 noundef 64) #8
          to label %11 unwind label %_ZNSt3__110unique_ptrIA_NS_24__barrier_algorithm_base9__state_tENS_14default_deleteIS3_EEED2B8ne210000Ev.exit9.i

11:                                               ; preds = %1
  %12 = icmp ult i64 %5, 2
  br i1 %12, label %14, label %_ZNSt3__110unique_ptrIA_NS_24__barrier_algorithm_base9__state_tENS_14default_deleteIS3_EEED2B8ne210000Ev.exit.loopexit.i

_ZNSt3__110unique_ptrIA_NS_24__barrier_algorithm_base9__state_tENS_14default_deleteIS3_EEED2B8ne210000Ev.exit.loopexit.i: ; preds = %11
  tail call void @llvm.memset.p0.i64(ptr nonnull align 64 %10, i8 0, i64 %8, i1 false), !tbaa !14
  br label %14

_ZNSt3__110unique_ptrIA_NS_24__barrier_algorithm_base9__state_tENS_14default_deleteIS3_EEED2B8ne210000Ev.exit9.i: ; preds = %1
  %13 = landingpad { ptr, i32 }
          cleanup
  store ptr null, ptr %3, align 8, !tbaa !9
  tail call void @_ZdlPvm(ptr noundef nonnull %2, i64 noundef 16) #9
  resume { ptr, i32 } %13

14:                                               ; preds = %_ZNSt3__110unique_ptrIA_NS_24__barrier_algorithm_base9__state_tENS_14default_deleteIS3_EEED2B8ne210000Ev.exit.loopexit.i, %11
  store ptr %10, ptr %3, align 8, !tbaa !9
  ret ptr %2
}